; Function Attrs: nofree norecurse nosync nounwind memory(argmem: readwrite) uwtable
define internal void @TM4_SSE2(ptr noundef captures(none) %0) #2 {
  %2 = getelementptr inbounds i8, ptr %0, i64 -32
  %.val.i = load i32, ptr %2, align 1
  %3 = insertelement <4 x i32> poison, i32 %.val.i, i64 0
  %4 = bitcast <4 x i32> %3 to <16 x i8>
  %5 = shufflevector <16 x i8> %4, <16 x i8> <i8 0, i8 0, i8 0, i8 0, i8 poison, i8 poison, i8 poison, i8 poison, i8 poison, i8 poison, i8 poison, i8 poison, i8 poison, i8 poison, i8 poison, i8 poison>, <16 x i32> <i32 0, i32 16, i32 1, i32 17, i32 2, i32 18, i32 3, i32 19, i32 poison, i32 poison, i32 poison, i32 poison, i32 poison, i32 poison, i32 poison, i32 poison>
  %6 = getelementptr inbounds i8, ptr %0, i64 -33
  %7 = bitcast <16 x i8> %5 to <8 x i16>
  br label %8

8:                                                ; preds = %8, %1
  %.058.i = phi ptr [ %0, %1 ], [ %22, %8 ]
  %.04957.i = phi i32 [ 0, %1 ], [ %21, %8 ]
  %9 = getelementptr inbounds i8, ptr %.058.i, i64 -1
  %10 = load i8, ptr %9, align 1, !tbaa !7
  %11 = zext i8 %10 to i16
  %12 = load i8, ptr %6, align 1, !tbaa !7
  %13 = zext i8 %12 to i16
  %14 = sub nsw i16 %11, %13
  %15 = insertelement <8 x i16> poison, i16 %14, i64 0
  %16 = shufflevector <8 x i16> %15, <8 x i16> poison, <8 x i32> <i32 0, i32 0, i32 0, i32 0, i32 poison, i32 poison, i32 poison, i32 poison>
  %17 = add <8 x i16> %16, %7
  %18 = tail call <16 x i8> @llvm.x86.sse2.packuswb.128(<8 x i16> %17, <8 x i16> poison)
  %19 = bitcast <16 x i8> %18 to <4 x i32>
  %20 = extractelement <4 x i32> %19, i64 0
  store i32 %20, ptr %.058.i, align 1
  %21 = add nuw nsw i32 %.04957.i, 1
  %22 = getelementptr inbounds nuw i8, ptr %.058.i, i64 32
  %exitcond63.not.i = icmp eq i32 %21, 4
  br i1 %exitcond63.not.i, label %TrueMotion_SSE2.exit, label %8, !llvm.loop !14

TrueMotion_SSE2.exit:                             ; preds = %8
  ret void
}